; Function Attrs: null_pointer_is_valid sspstrong uwtable
define internal i32 @glusterfs_gfs3_3_op_setxattr_call(ptr noundef %0, ptr readnone captures(none) %1, ptr noundef %2, ptr readnone captures(none) %3) #0 {
  %5 = load i32, ptr @hf_glusterfs_gfid, align 4
  %6 = tail call ptr @proto_tree_add_item(ptr noundef %2, i32 noundef %5, ptr noundef %0, i32 noundef 0, i32 noundef 16, i32 noundef 0)
  %7 = tail call fastcc i32 @glusterfs_rpc_dissect_flags(ptr noundef %2, ptr noundef %0, i32 noundef 16)
  %8 = load i32, ptr @hf_glusterfs_dict, align 4
  %9 = tail call i32 @gluster_rpc_dissect_dict(ptr noundef %2, ptr noundef %0, i32 noundef %8, i32 noundef %7)
  %10 = load i32, ptr @hf_glusterfs_dict, align 4
  %11 = tail call i32 @gluster_rpc_dissect_dict(ptr noundef %2, ptr noundef %0, i32 noundef %10, i32 noundef %9)
  ret i32 %11
}